; Function Attrs: nounwind uwtable
define dso_local ptr @acct_storage_p_add_users_cond(ptr noundef %0, i32 noundef %1, ptr noundef %2, ptr noundef %3) local_unnamed_addr #0 {
  %5 = alloca %struct.persist_msg_t, align 8
  %6 = alloca %struct.dbd_modify_msg_t, align 8
  %7 = alloca ptr, align 8
  %8 = alloca i32, align 4
  call void @llvm.lifetime.start.p0(i64 24, ptr nonnull %5) #11
  %9 = getelementptr inbounds nuw i8, ptr %5, i64 16
  store i64 0, ptr %9, align 8
  call void @llvm.lifetime.start.p0(i64 16, ptr nonnull %6) #11
  call void @llvm.lifetime.start.p0(i64 8, ptr nonnull %7) #11
  store ptr null, ptr %7, align 8
  call void @llvm.lifetime.start.p0(i64 4, ptr nonnull %8) #11
  store i32 0, ptr %8, align 4
  store ptr %2, ptr %6, align 8
  %10 = getelementptr inbounds nuw i8, ptr %6, i64 8
  store ptr %3, ptr %10, align 8
  %11 = getelementptr inbounds nuw i8, ptr %5, i64 16
  store i16 1502, ptr %11, align 8
  store ptr %0, ptr %5, align 8
  %12 = getelementptr inbounds nuw i8, ptr %5, i64 8
  store ptr %6, ptr %12, align 8
  %13 = call i32 @dbd_conn_send_recv_rc_comment_msg(i16 noundef zeroext 11008, ptr noundef nonnull %5, ptr noundef nonnull %8, ptr noundef nonnull %7) #11
  %14 = load i32, ptr %8, align 4
  %.not = icmp eq i32 %14, 0
  %spec.select = select i1 %.not, i32 %13, i32 %14
  %15 = tail call ptr @__errno_location() #12
  store i32 %spec.select, ptr %15, align 4
  %16 = load ptr, ptr %7, align 8
  call void @llvm.lifetime.end.p0(i64 4, ptr nonnull %8) #11
  call void @llvm.lifetime.end.p0(i64 8, ptr nonnull %7) #11
  call void @llvm.lifetime.end.p0(i64 16, ptr nonnull %6) #11
  call void @llvm.lifetime.end.p0(i64 24, ptr nonnull %5) #11
  ret ptr %16
}